target datalayout = "e-m:e-p270:32:32-p271:32:32-p272:64:64-i64:64-i128:128-f80:128-n8:16:32:64-S128"
target triple = "x86_64-pc-linux-gnu"

%struct.mlib_image = type { i32, i32, i32, i32, i32, i32, ptr, ptr, [4 x i8], i32, i32, [3 x i32] }

; Function Attrs: nounwind uwtable
define internal i32 @mlib_ImageGetType(ptr noundef %0) #0 {
  %2 = alloca ptr, align 8
  store ptr %0, ptr %2, align 8
  %3 = load ptr, ptr %2, align 8
  %4 = getelementptr inbounds %struct.mlib_image, ptr %3, i32 0, i32 0
  %5 = load i32, ptr %4, align 8
  ret i32 %5
}

; Function Attrs: nounwind uwtable
define hidden i32 @mlib_ImageConvMxN_Fp(ptr noundef %0, ptr noundef %1, ptr noundef %2, i32 noundef %3, i32 noundef %4, i32 noundef %5, i32 noundef %6, i32 noundef %7, i32 noundef %8) #0 {
  %10 = alloca i32, align 4
  %11 = alloca ptr, align 8
  %12 = alloca ptr, align 8
  %13 = alloca ptr, align 8
  %14 = alloca i32, align 4
  %15 = alloca i32, align 4
  %16 = alloca i32, align 4
  %17 = alloca i32, align 4
  %18 = alloca i32, align 4
  %19 = alloca i32, align 4
  %20 = alloca i32, align 4
  store ptr %0, ptr %11, align 8
  store ptr %1, ptr %12, align 8
  store ptr %2, ptr %13, align 8
  store i32 %3, ptr %14, align 4
  store i32 %4, ptr %15, align 4
  store i32 %5, ptr %16, align 4
  store i32 %6, ptr %17, align 4
  store i32 %7, ptr %18, align 4
  store i32 %8, ptr %19, align 4
  %21 = load ptr, ptr %11, align 8
  %22 = icmp eq ptr %21, null
  br i1 %22, label %23, label %24

23:                                               ; preds = %9
  store i32 2, ptr %10, align 4
  br label %44

24:                                               ; preds = %9
  %25 = load ptr, ptr %11, align 8
  %26 = call i32 @mlib_ImageGetType(ptr noundef %25)
  store i32 %26, ptr %20, align 4
  %27 = load i32, ptr %20, align 4
  %28 = icmp ne i32 %27, 4
  br i1 %28, label %29, label %33

29:                                               ; preds = %24
  %30 = load i32, ptr %20, align 4
  %31 = icmp ne i32 %30, 5
  br i1 %31, label %32, label %33

32:                                               ; preds = %29
  store i32 1, ptr %10, align 4
  br label %44

33:                                               ; preds = %29, %24
  %34 = load ptr, ptr %11, align 8
  %35 = load ptr, ptr %12, align 8
  %36 = load ptr, ptr %13, align 8
  %37 = load i32, ptr %14, align 4
  %38 = load i32, ptr %15, align 4
  %39 = load i32, ptr %16, align 4
  %40 = load i32, ptr %17, align 4
  %41 = load i32, ptr %18, align 4
  %42 = load i32, ptr %19, align 4
  %43 = call i32 @mlib_ImageConvMxN_f(ptr noundef %34, ptr noundef %35, ptr noundef %36, i32 noundef %37, i32 noundef %38, i32 noundef %39, i32 noundef %40, i32 noundef 0, i32 noundef %41, i32 noundef %42)
  store i32 %43, ptr %10, align 4
  br label %44

44:                                               ; preds = %33, %32, %23
  %45 = load i32, ptr %10, align 4
  ret i32 %45
}