; Function Attrs: nounwind uwtable
define hidden i32 @mlib_ImageConvMxN_Fp(ptr noundef %0, ptr noundef %1, ptr noundef %2, i32 noundef %3, i32 noundef %4, i32 noundef %5, i32 noundef %6, i32 noundef %7, i32 noundef %8) local_unnamed_addr #0 {
  %10 = icmp eq ptr %0, null
  br i1 %10, label %15, label %11

11:                                               ; preds = %9
  %.val = load i32, ptr %0, align 8
  %12 = add i32 %.val, -6
  %or.cond = icmp ult i32 %12, -2
  br i1 %or.cond, label %15, label %13

13:                                               ; preds = %11
  %14 = tail call i32 @mlib_ImageConvMxN_f(ptr noundef nonnull %0, ptr noundef %1, ptr noundef %2, i32 noundef %3, i32 noundef %4, i32 noundef %5, i32 noundef %6, i32 noundef 0, i32 noundef %7, i32 noundef %8) #3
  br label %15

15:                                               ; preds = %11, %9, %13
  %.0 = phi i32 [ %14, %13 ], [ 2, %9 ], [ 1, %11 ]
  ret i32 %.0
}